; Function Attrs: mustprogress uwtable
define hidden void @_ZN2cv3hal12cpu_baseline6mul16sEPKsmS3_mPsmiiPKd(ptr nocapture noundef readonly %0, i64 noundef %1, ptr nocapture noundef readonly %2, i64 noundef %3, ptr nocapture noundef writeonly %4, i64 noundef %5, i32 noundef %6, i32 noundef %7, ptr nocapture noundef readonly %8) local_unnamed_addr #3 personality ptr @__gxx_personality_v0 {
  %10 = alloca %"class.cv::utils::trace::details::Region", align 8
  call void @_ZN2cv5utils5trace7details6RegionC1ERKNS3_21LocationStaticStorageE(ptr noundef nonnull align 8 dereferenceable(12) %10, ptr noundef nonnull align 8 dereferenceable(32) @_ZZN2cv3hal12cpu_baseline6mul16sEPKsmS3_mPsmiiPKdE26__cv_trace_location_fn1559)
  %.val = load double, ptr %8, align 8
  %11 = fptrunc double %.val to float
  %12 = fadd float %11, -1.000000e+00
  %13 = call noundef float @llvm.fabs.f32(float %12)
  %14 = fcmp ugt float %13, 0x3E80000000000000
  %15 = lshr i64 %1, 1
  %16 = lshr i64 %3, 1
  %17 = lshr i64 %5, 1
  %.not24.i.i = icmp ne i32 %7, 0
  %18 = icmp sgt i32 %6, 0
  %or.cond.i16.i = and i1 %18, %.not24.i.i
  br i1 %14, label %36, label %19

19:                                               ; preds = %9
  br i1 %or.cond.i16.i, label %.preheader.us.preheader.i.i, label %_ZN2cv3hal12cpu_baselineL8mul_loopIsNS_12hal_baseline5v_regIsLi8EEEEEvPKT_mS8_mPS6_miiPKd.exit

.preheader.us.preheader.i.i:                      ; preds = %19
  %wide.trip.count.i.i = zext nneg i32 %6 to i64
  br label %.preheader.us.i.i

.preheader.us.i.i:                                ; preds = %._crit_edge.us.i.i, %.preheader.us.preheader.i.i
  %.in.i.i = phi i32 [ %32, %._crit_edge.us.i.i ], [ %7, %.preheader.us.preheader.i.i ]
  %.01926.us.i.i = phi ptr [ %33, %._crit_edge.us.i.i ], [ %0, %.preheader.us.preheader.i.i ]
  %.02025.us.i.i = phi ptr [ %35, %._crit_edge.us.i.i ], [ %4, %.preheader.us.preheader.i.i ]
  %.02124.us.i.i = phi ptr [ %34, %._crit_edge.us.i.i ], [ %2, %.preheader.us.preheader.i.i ]
  br label %20

20:                                               ; preds = %20, %.preheader.us.i.i
  %indvars.iv.i.i = phi i64 [ 0, %.preheader.us.i.i ], [ %indvars.iv.next.i.i, %20 ]
  %21 = getelementptr inbounds i16, ptr %.01926.us.i.i, i64 %indvars.iv.i.i
  %22 = load i16, ptr %21, align 2
  %23 = getelementptr inbounds i16, ptr %.02124.us.i.i, i64 %indvars.iv.i.i
  %24 = load i16, ptr %23, align 2
  %25 = sext i16 %22 to i32
  %26 = sext i16 %24 to i32
  %27 = mul nsw i32 %26, %25
  %28 = call i32 @llvm.smax.i32(i32 %27, i32 -32768)
  %29 = call i32 @llvm.smin.i32(i32 %28, i32 32767)
  %30 = trunc nsw i32 %29 to i16
  %31 = getelementptr inbounds i16, ptr %.02025.us.i.i, i64 %indvars.iv.i.i
  store i16 %30, ptr %31, align 2
  %indvars.iv.next.i.i = add nuw nsw i64 %indvars.iv.i.i, 1
  %exitcond.not.i.i = icmp eq i64 %indvars.iv.next.i.i, %wide.trip.count.i.i
  br i1 %exitcond.not.i.i, label %._crit_edge.us.i.i, label %20, !llvm.loop !160

._crit_edge.us.i.i:                               ; preds = %20
  %32 = add nsw i32 %.in.i.i, -1
  %33 = getelementptr inbounds i16, ptr %.01926.us.i.i, i64 %15
  %34 = getelementptr inbounds i16, ptr %.02124.us.i.i, i64 %16
  %35 = getelementptr inbounds i16, ptr %.02025.us.i.i, i64 %17
  %.not.us.i.i = icmp eq i32 %32, 0
  br i1 %.not.us.i.i, label %_ZN2cv3hal12cpu_baselineL8mul_loopIsNS_12hal_baseline5v_regIsLi8EEEEEvPKT_mS8_mPS6_miiPKd.exit, label %.preheader.us.i.i, !llvm.loop !161

36:                                               ; preds = %9
  br i1 %or.cond.i16.i, label %.preheader.us.preheader.i17.i, label %_ZN2cv3hal12cpu_baselineL8mul_loopIsNS_12hal_baseline5v_regIsLi8EEEEEvPKT_mS8_mPS6_miiPKd.exit

.preheader.us.preheader.i17.i:                    ; preds = %36
  %wide.trip.count.i18.i = zext nneg i32 %6 to i64
  br label %.preheader.us.i19.i

.preheader.us.i19.i:                              ; preds = %._crit_edge.us.i24.i, %.preheader.us.preheader.i17.i
  %.in.i20.i = phi i32 [ %52, %._crit_edge.us.i24.i ], [ %7, %.preheader.us.preheader.i17.i ]
  %.01927.us.i.i = phi ptr [ %53, %._crit_edge.us.i24.i ], [ %0, %.preheader.us.preheader.i17.i ]
  %.02126.us.i.i = phi ptr [ %55, %._crit_edge.us.i24.i ], [ %4, %.preheader.us.preheader.i17.i ]
  %.02225.us.i.i = phi ptr [ %54, %._crit_edge.us.i24.i ], [ %2, %.preheader.us.preheader.i17.i ]
  br label %37

37:                                               ; preds = %37, %.preheader.us.i19.i
  %indvars.iv.i21.i = phi i64 [ 0, %.preheader.us.i19.i ], [ %indvars.iv.next.i22.i, %37 ]
  %38 = getelementptr inbounds i16, ptr %.01927.us.i.i, i64 %indvars.iv.i21.i
  %39 = load i16, ptr %38, align 2
  %40 = getelementptr inbounds i16, ptr %.02225.us.i.i, i64 %indvars.iv.i21.i
  %41 = load i16, ptr %40, align 2
  %42 = sitofp i16 %39 to float
  %43 = fmul float %11, %42
  %44 = sitofp i16 %41 to float
  %45 = fmul float %43, %44
  %46 = insertelement <4 x float> poison, float %45, i64 0
  %47 = call noundef i32 @llvm.x86.sse.cvtss2si(<4 x float> %46)
  %48 = call i32 @llvm.smax.i32(i32 %47, i32 -32768)
  %49 = call i32 @llvm.smin.i32(i32 %48, i32 32767)
  %50 = trunc nsw i32 %49 to i16
  %51 = getelementptr inbounds i16, ptr %.02126.us.i.i, i64 %indvars.iv.i21.i
  store i16 %50, ptr %51, align 2
  %indvars.iv.next.i22.i = add nuw nsw i64 %indvars.iv.i21.i, 1
  %exitcond.not.i23.i = icmp eq i64 %indvars.iv.next.i22.i, %wide.trip.count.i18.i
  br i1 %exitcond.not.i23.i, label %._crit_edge.us.i24.i, label %37, !llvm.loop !162

._crit_edge.us.i24.i:                             ; preds = %37
  %52 = add nsw i32 %.in.i20.i, -1
  %53 = getelementptr inbounds i16, ptr %.01927.us.i.i, i64 %15
  %54 = getelementptr inbounds i16, ptr %.02225.us.i.i, i64 %16
  %55 = getelementptr inbounds i16, ptr %.02126.us.i.i, i64 %17
  %.not.us.i25.i = icmp eq i32 %52, 0
  br i1 %.not.us.i25.i, label %_ZN2cv3hal12cpu_baselineL8mul_loopIsNS_12hal_baseline5v_regIsLi8EEEEEvPKT_mS8_mPS6_miiPKd.exit, label %.preheader.us.i19.i, !llvm.loop !163

_ZN2cv3hal12cpu_baselineL8mul_loopIsNS_12hal_baseline5v_regIsLi8EEEEEvPKT_mS8_mPS6_miiPKd.exit: ; preds = %._crit_edge.us.i.i, %._crit_edge.us.i24.i, %36, %19
  %56 = getelementptr inbounds i8, ptr %10, i64 8
  %57 = load i32, ptr %56, align 8
  %.not.i = icmp eq i32 %57, 0
  br i1 %.not.i, label %_ZN2cv5utils5trace7details6RegionD2Ev.exit, label %58

58:                                               ; preds = %_ZN2cv3hal12cpu_baselineL8mul_loopIsNS_12hal_baseline5v_regIsLi8EEEEEvPKT_mS8_mPS6_miiPKd.exit
  invoke void @_ZN2cv5utils5trace7details6Region7destroyEv(ptr noundef nonnull align 8 dereferenceable(12) %10)
          to label %_ZN2cv5utils5trace7details6RegionD2Ev.exit unwind label %59

59:                                               ; preds = %58
  %60 = landingpad { ptr, i32 }
          catch ptr null
  %61 = extractvalue { ptr, i32 } %60, 0
  call void @__clang_call_terminate(ptr %61) #11
  unreachable

_ZN2cv5utils5trace7details6RegionD2Ev.exit:       ; preds = %_ZN2cv3hal12cpu_baselineL8mul_loopIsNS_12hal_baseline5v_regIsLi8EEEEEvPKT_mS8_mPS6_miiPKd.exit, %58
  ret void
}